(dp0
S'info'
p1
I0
sS'function'
p2
I0
sS'error'
p3
I8
sS'statement'
p4
I30
sS'by_msg'
p5
(dp6
S'print-statement'
p7
I7
sS'undefined-variable'
p8
I1
ssS'refactor'
p9
I0
sS'method'
p10
I0
sS'cycles'
p11
(lp12
sS'warning'
p13
I0
sS'module'
p14
I1
sS'dependencies'
p15
(dp16
sS'convention'
p17
I0
sS'fatal'
p18
I0
sS'class'
p19
I0
sS'by_module'
p20
(dp21
S'.~c9_invoke_2DrNaO'
p22
(dp23
g1
I0
sg17
I0
sg9
I0
sg13
I0
sg4
I0
sg3
I8
sg18
I0
sss.