(dp0
S'info'
p1
I0
sS'function'
p2
I0
sS'error'
p3
I6
sS'by_msg'
p4
(dp5
S'unused-variable'
p6
I1
sS'no-member'
p7
I1
sS'print-statement'
p8
I4
sS'undefined-variable'
p9
I1
ssS'refactor'
p10
I0
sS'method'
p11
I0
sS'warning'
p12
I1
sS'module'
p13
I0
sS'statement'
p14
I14
sS'convention'
p15
I0
sS'fatal'
p16
I0
sS'class'
p17
I0
sS'by_module'
p18
(dp19
S'c9_pyl_RXs4vC'
p20
(dp21
g1
I0
sg15
I0
sg10
I0
sg12
I1
sg14
I0
sg3
I6
sg16
I0
sss.