(dp0
S'info'
p1
I0
sS'function'
p2
I0
sS'error'
p3
I11
sS'by_msg'
p4
(dp5
S'print-statement'
p6
I9
sS'too-many-function-args'
p7
I1
sS'undefined-variable'
p8
I1
ssS'refactor'
p9
I0
sS'method'
p10
I0
sS'warning'
p11
I0
sS'module'
p12
I0
sS'statement'
p13
I48
sS'convention'
p14
I0
sS'fatal'
p15
I0
sS'class'
p16
I0
sS'by_module'
p17
(dp18
S'c9_pyl_7Xlxrx'
p19
(dp20
g1
I0
sg14
I0
sg9
I0
sg11
I0
sg13
I0
sg3
I11
sg15
I0
sss.